; ModuleID = '29/1864.c'
source_filename = "29/1864.c"
target datalayout = "e-m:e-p270:32:32-p271:32:32-p272:64:64-i64:64-f80:128-n8:16:32:64-S128"
target triple = "x86_64-pc-linux-gnu"

@.str = private unnamed_addr constant [3 x i8] c"%d\00", align 1
@.str.1 = private unnamed_addr constant [6 x i8] c"%.3f\0A\00", align 1

; Function Attrs: noinline nounwind uwtable
define dso_local i32 @main() #0 {
  %1 = alloca i32, align 4
  %2 = alloca i32, align 4
  %3 = alloca i32, align 4
  %4 = alloca i32, align 4
  %5 = alloca i32, align 4
  %6 = alloca i32*, align 8
  %7 = alloca [100 x float], align 16
  %8 = alloca float, align 4
  %9 = alloca float, align 4
  %10 = alloca float, align 4
  store i32 0, i32* %1, align 4
  %11 = call i32 (i8*, ...) @__isoc99_scanf(i8* getelementptr inbounds ([3 x i8], [3 x i8]* @.str, i64 0, i64 0), i32* %2)
  %12 = load i32, i32* %2, align 4
  %13 = sext i32 %12 to i64
  %14 = mul i64 %13, 4
  %15 = call noalias i8* @malloc(i64 %14) #3
  %16 = bitcast i8* %15 to i32*
  store i32* %16, i32** %6, align 8
  store float 1.000000e+00, float* %8, align 4
  store float 1.000000e+00, float* %9, align 4
  store i32 1, i32* %4, align 4
  br label %17

17:                                               ; preds = %60, %0
  %18 = load i32, i32* %4, align 4
  %19 = load i32, i32* %2, align 4
  %20 = icmp sle i32 %18, %19
  br i1 %20, label %21, label %63

21:                                               ; preds = %17
  %22 = load i32*, i32** %6, align 8
  %23 = load i32, i32* %4, align 4
  %24 = sub nsw i32 %23, 1
  %25 = sext i32 %24 to i64
  %26 = getelementptr inbounds i32, i32* %22, i64 %25
  %27 = call i32 (i8*, ...) @__isoc99_scanf(i8* getelementptr inbounds ([3 x i8], [3 x i8]* @.str, i64 0, i64 0), i32* %26)
  %28 = load i32, i32* %4, align 4
  %29 = sub nsw i32 %28, 1
  %30 = sext i32 %29 to i64
  %31 = getelementptr inbounds [100 x float], [100 x float]* %7, i64 0, i64 %30
  store float 0.000000e+00, float* %31, align 4
  store i32 1, i32* %5, align 4
  br label %32

32:                                               ; preds = %56, %21
  %33 = load i32, i32* %5, align 4
  %34 = load i32*, i32** %6, align 8
  %35 = load i32, i32* %4, align 4
  %36 = sub nsw i32 %35, 1
  %37 = sext i32 %36 to i64
  %38 = getelementptr inbounds i32, i32* %34, i64 %37
  %39 = load i32, i32* %38, align 4
  %40 = icmp sle i32 %33, %39
  br i1 %40, label %41, label %59

41:                                               ; preds = %32
  %42 = load float, float* %8, align 4
  %43 = load float, float* %9, align 4
  %44 = fadd float %42, %43
  store float %44, float* %10, align 4
  %45 = load float, float* %10, align 4
  %46 = load float, float* %9, align 4
  %47 = fdiv float %45, %46
  %48 = load i32, i32* %4, align 4
  %49 = sub nsw i32 %48, 1
  %50 = sext i32 %49 to i64
  %51 = getelementptr inbounds [100 x float], [100 x float]* %7, i64 0, i64 %50
  %52 = load float, float* %51, align 4
  %53 = fadd float %52, %47
  store float %53, float* %51, align 4
  %54 = load float, float* %9, align 4
  store float %54, float* %8, align 4
  %55 = load float, float* %10, align 4
  store float %55, float* %9, align 4
  br label %56

56:                                               ; preds = %41
  %57 = load i32, i32* %5, align 4
  %58 = add nsw i32 %57, 1
  store i32 %58, i32* %5, align 4
  br label %32

59:                                               ; preds = %32
  store float 1.000000e+00, float* %8, align 4
  store float 1.000000e+00, float* %9, align 4
  store float 0.000000e+00, float* %10, align 4
  br label %60

60:                                               ; preds = %59
  %61 = load i32, i32* %4, align 4
  %62 = add nsw i32 %61, 1
  store i32 %62, i32* %4, align 4
  br label %17

63:                                               ; preds = %17
  store i32 1, i32* %4, align 4
  br label %64

64:                                               ; preds = %76, %63
  %65 = load i32, i32* %4, align 4
  %66 = load i32, i32* %2, align 4
  %67 = icmp sle i32 %65, %66
  br i1 %67, label %68, label %79

68:                                               ; preds = %64
  %69 = load i32, i32* %4, align 4
  %70 = sub nsw i32 %69, 1
  %71 = sext i32 %70 to i64
  %72 = getelementptr inbounds [100 x float], [100 x float]* %7, i64 0, i64 %71
  %73 = load float, float* %72, align 4
  %74 = fpext float %73 to double
  %75 = call i32 (i8*, ...) @printf(i8* getelementptr inbounds ([6 x i8], [6 x i8]* @.str.1, i64 0, i64 0), double %74)
  br label %76

76:                                               ; preds = %68
  %77 = load i32, i32* %4, align 4
  %78 = add nsw i32 %77, 1
  store i32 %78, i32* %4, align 4
  br label %64

79:                                               ; preds = %64
  %80 = load i32, i32* %1, align 4
  ret i32 %80
}

declare dso_local i32 @__isoc99_scanf(i8*, ...) #1

; Function Attrs: nounwind
declare dso_local noalias i8* @malloc(i64) #2

declare dso_local i32 @printf(i8*, ...) #1


!llvm.module.flags = !{!0}
!llvm.ident = !{!1}

!0 = !{i32 1, !"wchar_size", i32 4}
!1 = !{!"clang version 10.0.0-4ubuntu1 "}
